target datalayout = "e-m:e-p270:32:32-p271:32:32-p272:64:64-i64:64-i128:128-f80:128-n8:16:32:64-S128"
target triple = "x86_64-pc-linux-gnu"

%"struct.icu_77::(anonymous namespace)::LocaleAndWeight" = type { ptr, i32, i32 }

; Function Attrs: mustprogress nounwind uwtable
define internal noundef i32 @_ZNK6icu_7712_GLOBAL__N_115LocaleAndWeight7compareERKS1_(ptr noundef nonnull align 8 dereferenceable(16) %0, ptr noundef nonnull align 8 dereferenceable(16) %1) #0 align 2 {
  %3 = alloca i32, align 4
  %4 = alloca ptr, align 8
  %5 = alloca ptr, align 8
  %6 = alloca i32, align 4
  %7 = alloca i32, align 4
  store ptr %0, ptr %4, align 8, !tbaa !58
  store ptr %1, ptr %5, align 8, !tbaa !58
  %8 = load ptr, ptr %4, align 8
  call void @llvm.lifetime.start.p0(i64 4, ptr %6) #11
  %9 = load ptr, ptr %5, align 8, !tbaa !58
  %10 = getelementptr inbounds nuw %"struct.icu_77::(anonymous namespace)::LocaleAndWeight", ptr %9, i32 0, i32 1
  %11 = load i32, ptr %10, align 8, !tbaa !62
  %12 = getelementptr inbounds nuw %"struct.icu_77::(anonymous namespace)::LocaleAndWeight", ptr %8, i32 0, i32 1
  %13 = load i32, ptr %12, align 8, !tbaa !62
  %14 = sub nsw i32 %11, %13
  store i32 %14, ptr %6, align 4, !tbaa !14
  %15 = load i32, ptr %6, align 4, !tbaa !14
  %16 = icmp ne i32 %15, 0
  br i1 %16, label %17, label %19

17:                                               ; preds = %2
  %18 = load i32, ptr %6, align 4, !tbaa !14
  store i32 %18, ptr %3, align 4
  store i32 1, ptr %7, align 4
  br label %26

19:                                               ; preds = %2
  %20 = getelementptr inbounds nuw %"struct.icu_77::(anonymous namespace)::LocaleAndWeight", ptr %8, i32 0, i32 2
  %21 = load i32, ptr %20, align 4, !tbaa !63
  %22 = load ptr, ptr %5, align 8, !tbaa !58
  %23 = getelementptr inbounds nuw %"struct.icu_77::(anonymous namespace)::LocaleAndWeight", ptr %22, i32 0, i32 2
  %24 = load i32, ptr %23, align 4, !tbaa !63
  %25 = sub nsw i32 %21, %24
  store i32 %25, ptr %3, align 4
  store i32 1, ptr %7, align 4
  br label %26

26:                                               ; preds = %19, %17
  call void @llvm.lifetime.end.p0(i64 4, ptr %6) #11
  %27 = load i32, ptr %3, align 4
  ret i32 %27
}

; Function Attrs: mustprogress uwtable
define internal noundef i32 @_ZN6icu_7712_GLOBAL__N_122compareLocaleAndWeightEPKvS2_S2_(ptr noundef %0, ptr noundef %1, ptr noundef %2) #1 {
  %4 = alloca ptr, align 8
  %5 = alloca ptr, align 8
  %6 = alloca ptr, align 8
  store ptr %0, ptr %4, align 8, !tbaa !22
  store ptr %1, ptr %5, align 8, !tbaa !22
  store ptr %2, ptr %6, align 8, !tbaa !22
  %7 = load ptr, ptr %5, align 8, !tbaa !22
  %8 = load ptr, ptr %6, align 8, !tbaa !22
  %9 = call noundef i32 @_ZNK6icu_7712_GLOBAL__N_115LocaleAndWeight7compareERKS1_(ptr noundef nonnull align 8 dereferenceable(16) %7, ptr noundef nonnull align 8 dereferenceable(16) %8)
  ret i32 %9
}