; Function Attrs: mustprogress nofree norecurse nosync nounwind willreturn memory(argmem: read) uwtable
define internal noundef i32 @_ZN6icu_7712_GLOBAL__N_122compareLocaleAndWeightEPKvS2_S2_(ptr readnone captures(none) %0, ptr noundef readonly captures(none) %1, ptr noundef readonly captures(none) %2) #15 {
  %4 = getelementptr i8, ptr %1, i64 8
  %.val = load i32, ptr %4, align 8, !tbaa !45
  %5 = getelementptr i8, ptr %1, i64 12
  %.val2 = load i32, ptr %5, align 4
  %6 = getelementptr i8, ptr %2, i64 8
  %.val3 = load i32, ptr %6, align 8, !tbaa !45
  %7 = getelementptr i8, ptr %2, i64 12
  %.val4 = load i32, ptr %7, align 4
  %8 = sub nsw i32 %.val3, %.val
  %.not.i = icmp eq i32 %.val3, %.val
  %9 = sub nsw i32 %.val2, %.val4
  %.0.i = select i1 %.not.i, i32 %9, i32 %8
  ret i32 %.0.i
}